target datalayout = "e-m:e-p270:32:32-p271:32:32-p272:64:64-i64:64-i128:128-f80:128-n8:16:32:64-S128"
target triple = "x86_64-pc-linux-gnu"

%struct.prov_aes_ocb_ctx_st = type { %struct.prov_cipher_ctx_st, %union.anon.0, %union.anon.1, %struct.ocb128_context, i32, i8, i64, i64, i64, [16 x i8], [16 x i8], [16 x i8] }
%struct.prov_cipher_ctx_st = type { [16 x i8], [16 x i8], [16 x i8], ptr, %union.anon, i32, i64, i64, i64, i64, i32, i8, i32, ptr, i32, i64, i32, i64, i32, ptr, ptr, ptr }
%union.anon = type { ptr }
%union.anon.0 = type { double, [240 x i8] }
%union.anon.1 = type { double, [240 x i8] }
%struct.ocb128_context = type { ptr, ptr, ptr, ptr, ptr, i64, i64, %union.OCB_BLOCK, %union.OCB_BLOCK, ptr, %struct.anon }
%union.OCB_BLOCK = type { [2 x i64] }
%struct.anon = type { i64, i64, %union.OCB_BLOCK, %union.OCB_BLOCK, %union.OCB_BLOCK, %union.OCB_BLOCK }
%struct.prov_cipher_hw_st = type { ptr, ptr, ptr }

@.str = private unnamed_addr constant [62 x i8] c"../openssl/providers/implementations/ciphers/cipher_aes_ocb.c\00", align 1
@__func__.aes_ocb_init = private unnamed_addr constant [13 x i8] c"aes_ocb_init\00", align 1

; Function Attrs: nounwind uwtable
define internal i32 @aes_ocb_init(ptr noundef %0, ptr noundef %1, i64 noundef %2, ptr noundef %3, i64 noundef %4, ptr noundef %5, i32 noundef %6) #0 {
  %8 = alloca i32, align 4
  %9 = alloca ptr, align 8
  %10 = alloca ptr, align 8
  %11 = alloca i64, align 8
  %12 = alloca ptr, align 8
  %13 = alloca i64, align 8
  %14 = alloca ptr, align 8
  %15 = alloca i32, align 4
  %16 = alloca ptr, align 8
  %17 = alloca i32, align 4
  store ptr %0, ptr %9, align 8, !tbaa !3
  store ptr %1, ptr %10, align 8, !tbaa !7
  store i64 %2, ptr %11, align 8, !tbaa !9
  store ptr %3, ptr %12, align 8, !tbaa !7
  store i64 %4, ptr %13, align 8, !tbaa !9
  store ptr %5, ptr %14, align 8, !tbaa !11
  store i32 %6, ptr %15, align 4, !tbaa !31
  call void @llvm.lifetime.start.p0(i64 8, ptr %16) #5
  %18 = load ptr, ptr %9, align 8, !tbaa !3
  store ptr %18, ptr %16, align 8, !tbaa !15
  %19 = call i32 @ossl_prov_is_running()
  %20 = icmp ne i32 %19, 0
  br i1 %20, label %22, label %21

21:                                               ; preds = %7
  store i32 0, ptr %8, align 4
  store i32 1, ptr %17, align 4
  br label %99

22:                                               ; preds = %7
  %23 = load ptr, ptr %16, align 8, !tbaa !15
  %24 = getelementptr inbounds nuw %struct.prov_aes_ocb_ctx_st, ptr %23, i32 0, i32 8
  store i64 0, ptr %24, align 8, !tbaa !26
  %25 = load ptr, ptr %16, align 8, !tbaa !15
  %26 = getelementptr inbounds nuw %struct.prov_aes_ocb_ctx_st, ptr %25, i32 0, i32 7
  store i64 0, ptr %26, align 8, !tbaa !17
  %27 = load i32, ptr %15, align 4, !tbaa !31
  %28 = load ptr, ptr %16, align 8, !tbaa !15
  %29 = getelementptr inbounds nuw %struct.prov_aes_ocb_ctx_st, ptr %28, i32 0, i32 0
  %30 = getelementptr inbounds nuw %struct.prov_cipher_ctx_st, ptr %29, i32 0, i32 11
  %31 = trunc i32 %27 to i8
  %32 = load i8, ptr %30, align 4
  %33 = and i8 %31, 1
  %34 = shl i8 %33, 1
  %35 = and i8 %32, -3
  %36 = or i8 %35, %34
  store i8 %36, ptr %30, align 4
  %37 = load ptr, ptr %12, align 8, !tbaa !7
  %38 = icmp ne ptr %37, null
  br i1 %38, label %39, label %69

39:                                               ; preds = %22
  %40 = load i64, ptr %13, align 8, !tbaa !9
  %41 = load ptr, ptr %16, align 8, !tbaa !15
  %42 = getelementptr inbounds nuw %struct.prov_aes_ocb_ctx_st, ptr %41, i32 0, i32 0
  %43 = getelementptr inbounds nuw %struct.prov_cipher_ctx_st, ptr %42, i32 0, i32 7
  %44 = load i64, ptr %43, align 8, !tbaa !35
  %45 = icmp ne i64 %40, %44
  br i1 %45, label %46, label %58

46:                                               ; preds = %39
  %47 = load i64, ptr %13, align 8, !tbaa !9
  %48 = icmp ult i64 %47, 1
  br i1 %48, label %52, label %49

49:                                               ; preds = %46
  %50 = load i64, ptr %13, align 8, !tbaa !9
  %51 = icmp ugt i64 %50, 15
  br i1 %51, label %52, label %53

52:                                               ; preds = %49, %46
  call void @ERR_new()
  call void @ERR_set_debug(ptr noundef @.str, i32 noundef 121, ptr noundef @__func__.aes_ocb_init)
  call void (i32, i32, ptr, ...) @ERR_set_error(i32 noundef 57, i32 noundef 109, ptr noundef null)
  store i32 0, ptr %8, align 4
  store i32 1, ptr %17, align 4
  br label %99

53:                                               ; preds = %49
  %54 = load i64, ptr %13, align 8, !tbaa !9
  %55 = load ptr, ptr %16, align 8, !tbaa !15
  %56 = getelementptr inbounds nuw %struct.prov_aes_ocb_ctx_st, ptr %55, i32 0, i32 0
  %57 = getelementptr inbounds nuw %struct.prov_cipher_ctx_st, ptr %56, i32 0, i32 7
  store i64 %54, ptr %57, align 8, !tbaa !35
  br label %58

58:                                               ; preds = %53, %39
  %59 = load ptr, ptr %16, align 8, !tbaa !15
  %60 = getelementptr inbounds nuw %struct.prov_aes_ocb_ctx_st, ptr %59, i32 0, i32 0
  %61 = load ptr, ptr %12, align 8, !tbaa !7
  %62 = load i64, ptr %13, align 8, !tbaa !9
  %63 = call i32 @ossl_cipher_generic_initiv(ptr noundef %60, ptr noundef %61, i64 noundef %62)
  %64 = icmp ne i32 %63, 0
  br i1 %64, label %66, label %65

65:                                               ; preds = %58
  store i32 0, ptr %8, align 4
  store i32 1, ptr %17, align 4
  br label %99

66:                                               ; preds = %58
  %67 = load ptr, ptr %16, align 8, !tbaa !15
  %68 = getelementptr inbounds nuw %struct.prov_aes_ocb_ctx_st, ptr %67, i32 0, i32 4
  store i32 1, ptr %68, align 8, !tbaa !28
  br label %69

69:                                               ; preds = %66, %22
  %70 = load ptr, ptr %10, align 8, !tbaa !7
  %71 = icmp ne ptr %70, null
  br i1 %71, label %72, label %95

72:                                               ; preds = %69
  %73 = load i64, ptr %11, align 8, !tbaa !9
  %74 = load ptr, ptr %16, align 8, !tbaa !15
  %75 = getelementptr inbounds nuw %struct.prov_aes_ocb_ctx_st, ptr %74, i32 0, i32 0
  %76 = getelementptr inbounds nuw %struct.prov_cipher_ctx_st, ptr %75, i32 0, i32 6
  %77 = load i64, ptr %76, align 8, !tbaa !36
  %78 = icmp ne i64 %73, %77
  br i1 %78, label %79, label %80

79:                                               ; preds = %72
  call void @ERR_new()
  call void @ERR_set_debug(ptr noundef @.str, i32 noundef 132, ptr noundef @__func__.aes_ocb_init)
  call void (i32, i32, ptr, ...) @ERR_set_error(i32 noundef 57, i32 noundef 105, ptr noundef null)
  store i32 0, ptr %8, align 4
  store i32 1, ptr %17, align 4
  br label %99

80:                                               ; preds = %72
  %81 = load ptr, ptr %16, align 8, !tbaa !15
  %82 = getelementptr inbounds nuw %struct.prov_aes_ocb_ctx_st, ptr %81, i32 0, i32 0
  %83 = getelementptr inbounds nuw %struct.prov_cipher_ctx_st, ptr %82, i32 0, i32 19
  %84 = load ptr, ptr %83, align 8, !tbaa !41
  %85 = getelementptr inbounds nuw %struct.prov_cipher_hw_st, ptr %84, i32 0, i32 0
  %86 = load ptr, ptr %85, align 8, !tbaa !42
  %87 = load ptr, ptr %16, align 8, !tbaa !15
  %88 = getelementptr inbounds nuw %struct.prov_aes_ocb_ctx_st, ptr %87, i32 0, i32 0
  %89 = load ptr, ptr %10, align 8, !tbaa !7
  %90 = load i64, ptr %11, align 8, !tbaa !9
  %91 = call i32 %86(ptr noundef %88, ptr noundef %89, i64 noundef %90)
  %92 = icmp ne i32 %91, 0
  br i1 %92, label %94, label %93

93:                                               ; preds = %80
  store i32 0, ptr %8, align 4
  store i32 1, ptr %17, align 4
  br label %99

94:                                               ; preds = %80
  br label %95

95:                                               ; preds = %94, %69
  %96 = load ptr, ptr %16, align 8, !tbaa !15
  %97 = load ptr, ptr %14, align 8, !tbaa !11
  %98 = call i32 @aes_ocb_set_ctx_params(ptr noundef %96, ptr noundef %97)
  store i32 %98, ptr %8, align 4
  store i32 1, ptr %17, align 4
  br label %99

99:                                               ; preds = %95, %93, %79, %65, %52, %21
  call void @llvm.lifetime.end.p0(i64 8, ptr %16) #5
  %100 = load i32, ptr %8, align 4
  ret i32 %100
}