; Function Attrs: nounwind uwtable
define internal fastcc range(i32 0, 2) i32 @aes_ocb_init(ptr noundef %0, ptr noundef %1, i64 noundef %2, ptr noundef %3, i64 noundef %4, ptr noundef %5, i32 noundef range(i32 0, 2) %6) unnamed_addr #0 {
  %8 = tail call i32 @ossl_prov_is_running() #7
  %.not = icmp eq i32 %8, 0
  br i1 %.not, label %40, label %9

9:                                                ; preds = %7
  %10 = getelementptr inbounds nuw i8, ptr %0, i64 880
  %11 = getelementptr inbounds nuw i8, ptr %0, i64 108
  %12 = trunc nuw nsw i32 %6 to i8
  tail call void @llvm.memset.p0.i64(ptr noundef nonnull align 8 dereferenceable(16) %10, i8 0, i64 16, i1 false)
  %13 = load i8, ptr %11, align 4
  %14 = shl nuw nsw i8 %12, 1
  %15 = and i8 %13, -3
  %16 = or disjoint i8 %15, %14
  store i8 %16, ptr %11, align 4
  %.not30 = icmp eq ptr %3, null
  br i1 %.not30, label %28, label %17

17:                                               ; preds = %9
  %18 = getelementptr inbounds nuw i8, ptr %0, i64 80
  %19 = load i64, ptr %18, align 8, !tbaa !18
  %.not31 = icmp eq i64 %4, %19
  br i1 %.not31, label %24, label %20

20:                                               ; preds = %17
  %21 = add i64 %4, -16
  %or.cond = icmp ult i64 %21, -15
  br i1 %or.cond, label %22, label %23

22:                                               ; preds = %20
  tail call void @ERR_new() #7
  tail call void @ERR_set_debug(ptr noundef nonnull @.str, i32 noundef 121, ptr noundef nonnull @__func__.aes_ocb_init) #7
  tail call void (i32, i32, ptr, ...) @ERR_set_error(i32 noundef 57, i32 noundef 109, ptr noundef null) #7
  br label %40

23:                                               ; preds = %20
  store i64 %4, ptr %18, align 8, !tbaa !18
  br label %24

24:                                               ; preds = %23, %17
  %25 = tail call i32 @ossl_cipher_generic_initiv(ptr noundef nonnull %0, ptr noundef nonnull %3, i64 noundef %4) #7
  %.not32 = icmp eq i32 %25, 0
  br i1 %.not32, label %40, label %26

26:                                               ; preds = %24
  %27 = getelementptr inbounds nuw i8, ptr %0, i64 864
  store i32 1, ptr %27, align 8, !tbaa !17
  br label %28

28:                                               ; preds = %26, %9
  %.not33 = icmp eq ptr %1, null
  br i1 %.not33, label %38, label %29

29:                                               ; preds = %28
  %30 = getelementptr inbounds nuw i8, ptr %0, i64 72
  %31 = load i64, ptr %30, align 8, !tbaa !30
  %.not34 = icmp eq i64 %2, %31
  br i1 %.not34, label %33, label %32

32:                                               ; preds = %29
  tail call void @ERR_new() #7
  tail call void @ERR_set_debug(ptr noundef nonnull @.str, i32 noundef 132, ptr noundef nonnull @__func__.aes_ocb_init) #7
  tail call void (i32, i32, ptr, ...) @ERR_set_error(i32 noundef 57, i32 noundef 105, ptr noundef null) #7
  br label %40

33:                                               ; preds = %29
  %34 = getelementptr inbounds nuw i8, ptr %0, i64 168
  %35 = load ptr, ptr %34, align 8, !tbaa !36
  %36 = load ptr, ptr %35, align 8, !tbaa !37
  %37 = tail call i32 %36(ptr noundef nonnull %0, ptr noundef nonnull %1, i64 noundef %2) #7
  %.not35 = icmp eq i32 %37, 0
  br i1 %.not35, label %40, label %38

38:                                               ; preds = %33, %28
  %39 = tail call i32 @aes_ocb_set_ctx_params(ptr noundef nonnull %0, ptr noundef %5)
  br label %40

40:                                               ; preds = %33, %24, %7, %38, %32, %22
  %.0 = phi i32 [ 0, %22 ], [ 0, %32 ], [ %39, %38 ], [ 0, %7 ], [ 0, %24 ], [ 0, %33 ]
  ret i32 %.0
}